target datalayout = "e-m:e-p270:32:32-p271:32:32-p272:64:64-i64:64-i128:128-f80:128-n8:16:32:64-S128"
target triple = "x86_64-pc-linux-gnu"

%"struct.cv::utils::trace::details::Region::LocationStaticStorage" = type { ptr, ptr, ptr, i32, i32 }
%"class.cv::utils::trace::details::Region" = type <{ ptr, i32, [4 x i8] }>

@_ZZN2cv17startWindowThreadEvE25__cv_trace_location_fn928 = internal constant %"struct.cv::utils::trace::details::Region::LocationStaticStorage" { ptr @_ZZN2cv17startWindowThreadEvE31__cv_trace_location_extra_fn928, ptr @.str.34, ptr @.str.1, i32 928, i32 1 }, align 8

; Function Attrs: mustprogress uwtable
define noundef i32 @_ZN2cv17startWindowThreadEv() #4 personality ptr @__gxx_personality_v0 {
  %1 = alloca %"class.cv::utils::trace::details::Region", align 8
  %2 = alloca ptr, align 8
  %3 = alloca i32, align 4
  call void @_ZN2cv5utils5trace7details6RegionC1ERKNS3_21LocationStaticStorageE(ptr noundef nonnull align 8 dereferenceable(12) %1, ptr noundef nonnull align 8 dereferenceable(32) @_ZZN2cv17startWindowThreadEvE25__cv_trace_location_fn928)
  %4 = invoke i32 @cvStartWindowThread()
          to label %5 unwind label %6

5:                                                ; preds = %0
  call void @_ZN2cv5utils5trace7details6RegionD2Ev(ptr noundef nonnull align 8 dereferenceable(12) %1) #3
  ret i32 %4

6:                                                ; preds = %0
  %7 = landingpad { ptr, i32 }
          cleanup
  %8 = extractvalue { ptr, i32 } %7, 0
  store ptr %8, ptr %2, align 8
  %9 = extractvalue { ptr, i32 } %7, 1
  store i32 %9, ptr %3, align 4
  call void @_ZN2cv5utils5trace7details6RegionD2Ev(ptr noundef nonnull align 8 dereferenceable(12) %1) #3
  br label %10

10:                                               ; preds = %6
  %11 = load ptr, ptr %2, align 8
  %12 = load i32, ptr %3, align 4
  %13 = insertvalue { ptr, i32 } poison, ptr %11, 0
  %14 = insertvalue { ptr, i32 } %13, i32 %12, 1
  resume { ptr, i32 } %14
}