; Function Attrs: mustprogress uwtable
define noundef i32 @_ZN2cv17startWindowThreadEv() local_unnamed_addr #3 personality ptr @__gxx_personality_v0 {
  %1 = alloca %"class.cv::utils::trace::details::Region", align 8
  call void @_ZN2cv5utils5trace7details6RegionC1ERKNS3_21LocationStaticStorageE(ptr noundef nonnull align 8 dereferenceable(12) %1, ptr noundef nonnull align 8 dereferenceable(32) @_ZZN2cv17startWindowThreadEvE25__cv_trace_location_fn928)
  %2 = invoke i32 @cvStartWindowThread()
          to label %3 unwind label %10

3:                                                ; preds = %0
  %4 = getelementptr inbounds i8, ptr %1, i64 8
  %5 = load i32, ptr %4, align 8
  %.not.i = icmp eq i32 %5, 0
  br i1 %.not.i, label %_ZN2cv5utils5trace7details6RegionD2Ev.exit, label %6

6:                                                ; preds = %3
  invoke void @_ZN2cv5utils5trace7details6Region7destroyEv(ptr noundef nonnull align 8 dereferenceable(12) %1)
          to label %_ZN2cv5utils5trace7details6RegionD2Ev.exit unwind label %7

7:                                                ; preds = %6
  %8 = landingpad { ptr, i32 }
          catch ptr null
  %9 = extractvalue { ptr, i32 } %8, 0
  call void @__clang_call_terminate(ptr %9) #23
  unreachable

_ZN2cv5utils5trace7details6RegionD2Ev.exit:       ; preds = %3, %6
  ret i32 %2

10:                                               ; preds = %0
  %11 = landingpad { ptr, i32 }
          cleanup
  call void @_ZN2cv5utils5trace7details6RegionD2Ev(ptr noundef nonnull align 8 dereferenceable(12) %1) #20
  resume { ptr, i32 } %11
}